; ModuleID = '21/1417.c'
source_filename = "21/1417.c"
target datalayout = "e-m:e-p270:32:32-p271:32:32-p272:64:64-i64:64-f80:128-n8:16:32:64-S128"
target triple = "x86_64-pc-linux-gnu"

@.str = private unnamed_addr constant [3 x i8] c"%d\00", align 1
@.str.1 = private unnamed_addr constant [4 x i8] c",%d\00", align 1

; Function Attrs: noinline nounwind uwtable
define dso_local i32 @main() #0 {
  %1 = alloca i32, align 4
  %2 = alloca i32, align 4
  %3 = alloca i32, align 4
  %4 = alloca i32, align 4
  %5 = alloca double, align 8
  %6 = alloca double*, align 8
  %7 = alloca i32*, align 8
  %8 = alloca i32*, align 8
  %9 = alloca i32, align 4
  %10 = alloca i32, align 4
  store i32 0, i32* %1, align 4
  store i32 0, i32* %3, align 4
  %11 = call i32 (i8*, ...) @__isoc99_scanf(i8* getelementptr inbounds ([3 x i8], [3 x i8]* @.str, i64 0, i64 0), i32* %2)
  %12 = load i32, i32* %2, align 4
  %13 = sext i32 %12 to i64
  %14 = mul i64 8, %13
  %15 = call noalias i8* @malloc(i64 %14) #3
  %16 = bitcast i8* %15 to double*
  store double* %16, double** %6, align 8
  %17 = load i32, i32* %2, align 4
  %18 = sext i32 %17 to i64
  %19 = mul i64 4, %18
  %20 = call noalias i8* @malloc(i64 %19) #3
  %21 = bitcast i8* %20 to i32*
  store i32* %21, i32** %7, align 8
  %22 = load i32, i32* %2, align 4
  %23 = sext i32 %22 to i64
  %24 = mul i64 4, %23
  %25 = call noalias i8* @malloc(i64 %24) #3
  %26 = bitcast i8* %25 to i32*
  store i32* %26, i32** %8, align 8
  store i32 0, i32* %4, align 4
  br label %27

27:                                               ; preds = %44, %0
  %28 = load i32, i32* %4, align 4
  %29 = load i32, i32* %2, align 4
  %30 = icmp slt i32 %28, %29
  br i1 %30, label %31, label %47

31:                                               ; preds = %27
  %32 = load i32*, i32** %7, align 8
  %33 = load i32, i32* %4, align 4
  %34 = sext i32 %33 to i64
  %35 = getelementptr inbounds i32, i32* %32, i64 %34
  %36 = call i32 (i8*, ...) @__isoc99_scanf(i8* getelementptr inbounds ([3 x i8], [3 x i8]* @.str, i64 0, i64 0), i32* %35)
  %37 = load i32*, i32** %7, align 8
  %38 = load i32, i32* %4, align 4
  %39 = sext i32 %38 to i64
  %40 = getelementptr inbounds i32, i32* %37, i64 %39
  %41 = load i32, i32* %40, align 4
  %42 = load i32, i32* %3, align 4
  %43 = add nsw i32 %42, %41
  store i32 %43, i32* %3, align 4
  br label %44

44:                                               ; preds = %31
  %45 = load i32, i32* %4, align 4
  %46 = add nsw i32 %45, 1
  store i32 %46, i32* %4, align 4
  br label %27

47:                                               ; preds = %27
  %48 = load i32, i32* %3, align 4
  %49 = sitofp i32 %48 to double
  %50 = load i32, i32* %2, align 4
  %51 = sitofp i32 %50 to double
  %52 = fdiv double %49, %51
  store double %52, double* %5, align 8
  store i32 0, i32* %4, align 4
  br label %53

53:                                               ; preds = %91, %47
  %54 = load i32, i32* %4, align 4
  %55 = load i32, i32* %2, align 4
  %56 = icmp slt i32 %54, %55
  br i1 %56, label %57, label %94

57:                                               ; preds = %53
  %58 = load i32*, i32** %7, align 8
  %59 = load i32, i32* %4, align 4
  %60 = sext i32 %59 to i64
  %61 = getelementptr inbounds i32, i32* %58, i64 %60
  %62 = load i32, i32* %61, align 4
  %63 = sitofp i32 %62 to double
  %64 = load double, double* %5, align 8
  %65 = fsub double %63, %64
  %66 = fcmp ogt double %65, 0.000000e+00
  br i1 %66, label %67, label %76

67:                                               ; preds = %57
  %68 = load i32*, i32** %7, align 8
  %69 = load i32, i32* %4, align 4
  %70 = sext i32 %69 to i64
  %71 = getelementptr inbounds i32, i32* %68, i64 %70
  %72 = load i32, i32* %71, align 4
  %73 = sitofp i32 %72 to double
  %74 = load double, double* %5, align 8
  %75 = fsub double %73, %74
  br label %85

76:                                               ; preds = %57
  %77 = load double, double* %5, align 8
  %78 = load i32*, i32** %7, align 8
  %79 = load i32, i32* %4, align 4
  %80 = sext i32 %79 to i64
  %81 = getelementptr inbounds i32, i32* %78, i64 %80
  %82 = load i32, i32* %81, align 4
  %83 = sitofp i32 %82 to double
  %84 = fsub double %77, %83
  br label %85

85:                                               ; preds = %76, %67
  %86 = phi double [ %75, %67 ], [ %84, %76 ]
  %87 = load double*, double** %6, align 8
  %88 = load i32, i32* %4, align 4
  %89 = sext i32 %88 to i64
  %90 = getelementptr inbounds double, double* %87, i64 %89
  store double %86, double* %90, align 8
  br label %91

91:                                               ; preds = %85
  %92 = load i32, i32* %4, align 4
  %93 = add nsw i32 %92, 1
  store i32 %93, i32* %4, align 4
  br label %53

94:                                               ; preds = %53
  store i32 0, i32* %9, align 4
  store i32 0, i32* %4, align 4
  br label %95

95:                                               ; preds = %114, %94
  %96 = load i32, i32* %4, align 4
  %97 = load i32, i32* %2, align 4
  %98 = icmp slt i32 %96, %97
  br i1 %98, label %99, label %117

99:                                               ; preds = %95
  %100 = load double*, double** %6, align 8
  %101 = load i32, i32* %4, align 4
  %102 = sext i32 %101 to i64
  %103 = getelementptr inbounds double, double* %100, i64 %102
  %104 = load double, double* %103, align 8
  %105 = load double*, double** %6, align 8
  %106 = load i32, i32* %9, align 4
  %107 = sext i32 %106 to i64
  %108 = getelementptr inbounds double, double* %105, i64 %107
  %109 = load double, double* %108, align 8
  %110 = fcmp ogt double %104, %109
  br i1 %110, label %111, label %113

111:                                              ; preds = %99
  %112 = load i32, i32* %4, align 4
  store i32 %112, i32* %9, align 4
  br label %113

113:                                              ; preds = %111, %99
  br label %114

114:                                              ; preds = %113
  %115 = load i32, i32* %4, align 4
  %116 = add nsw i32 %115, 1
  store i32 %116, i32* %4, align 4
  br label %95

117:                                              ; preds = %95
  store i32 0, i32* %10, align 4
  store i32 0, i32* %4, align 4
  br label %118

118:                                              ; preds = %147, %117
  %119 = load i32, i32* %4, align 4
  %120 = load i32, i32* %2, align 4
  %121 = icmp slt i32 %119, %120
  br i1 %121, label %122, label %150

122:                                              ; preds = %118
  %123 = load double*, double** %6, align 8
  %124 = load i32, i32* %4, align 4
  %125 = sext i32 %124 to i64
  %126 = getelementptr inbounds double, double* %123, i64 %125
  %127 = load double, double* %126, align 8
  %128 = load double*, double** %6, align 8
  %129 = load i32, i32* %9, align 4
  %130 = sext i32 %129 to i64
  %131 = getelementptr inbounds double, double* %128, i64 %130
  %132 = load double, double* %131, align 8
  %133 = fcmp oeq double %127, %132
  br i1 %133, label %134, label %146

134:                                              ; preds = %122
  %135 = load i32*, i32** %7, align 8
  %136 = load i32, i32* %4, align 4
  %137 = sext i32 %136 to i64
  %138 = getelementptr inbounds i32, i32* %135, i64 %137
  %139 = load i32, i32* %138, align 4
  %140 = load i32*, i32** %8, align 8
  %141 = load i32, i32* %10, align 4
  %142 = sext i32 %141 to i64
  %143 = getelementptr inbounds i32, i32* %140, i64 %142
  store i32 %139, i32* %143, align 4
  %144 = load i32, i32* %10, align 4
  %145 = add nsw i32 %144, 1
  store i32 %145, i32* %10, align 4
  br label %146

146:                                              ; preds = %134, %122
  br label %147

147:                                              ; preds = %146
  %148 = load i32, i32* %4, align 4
  %149 = add nsw i32 %148, 1
  store i32 %149, i32* %4, align 4
  br label %118

150:                                              ; preds = %118
  %151 = load i32, i32* %10, align 4
  %152 = icmp eq i32 %151, 1
  br i1 %152, label %153, label %158

153:                                              ; preds = %150
  %154 = load i32*, i32** %8, align 8
  %155 = getelementptr inbounds i32, i32* %154, i64 0
  %156 = load i32, i32* %155, align 4
  %157 = call i32 (i8*, ...) @printf(i8* getelementptr inbounds ([3 x i8], [3 x i8]* @.str, i64 0, i64 0), i32 %156)
  br label %178

158:                                              ; preds = %150
  %159 = load i32*, i32** %8, align 8
  %160 = getelementptr inbounds i32, i32* %159, i64 0
  %161 = load i32, i32* %160, align 4
  %162 = call i32 (i8*, ...) @printf(i8* getelementptr inbounds ([3 x i8], [3 x i8]* @.str, i64 0, i64 0), i32 %161)
  store i32 1, i32* %4, align 4
  br label %163

163:                                              ; preds = %174, %158
  %164 = load i32, i32* %4, align 4
  %165 = load i32, i32* %10, align 4
  %166 = icmp slt i32 %164, %165
  br i1 %166, label %167, label %177

167:                                              ; preds = %163
  %168 = load i32*, i32** %8, align 8
  %169 = load i32, i32* %4, align 4
  %170 = sext i32 %169 to i64
  %171 = getelementptr inbounds i32, i32* %168, i64 %170
  %172 = load i32, i32* %171, align 4
  %173 = call i32 (i8*, ...) @printf(i8* getelementptr inbounds ([4 x i8], [4 x i8]* @.str.1, i64 0, i64 0), i32 %172)
  br label %174

174:                                              ; preds = %167
  %175 = load i32, i32* %4, align 4
  %176 = add nsw i32 %175, 1
  store i32 %176, i32* %4, align 4
  br label %163

177:                                              ; preds = %163
  br label %178

178:                                              ; preds = %177, %153
  ret i32 0
}

declare dso_local i32 @__isoc99_scanf(i8*, ...) #1

; Function Attrs: nounwind
declare dso_local noalias i8* @malloc(i64) #2

declare dso_local i32 @printf(i8*, ...) #1


!llvm.module.flags = !{!0}
!llvm.ident = !{!1}

!0 = !{i32 1, !"wchar_size", i32 4}
!1 = !{!"clang version 10.0.0-4ubuntu1 "}
